; Function Attrs: mustprogress uwtable
define void @_ZN32pxrInternal_v0_24__pxrReserved__10TsKeyFrameC2ERKdRKNS_7VtValueENS_10TsKnotTypeES5_S5_dd(ptr noundef nonnull align 8 dereferenceable(72) %0, ptr nocapture noundef nonnull readonly align 8 dereferenceable(8) %1, ptr noundef nonnull align 8 dereferenceable(16) %2, i32 noundef %3, ptr noundef nonnull align 8 dereferenceable(16) %4, ptr noundef nonnull align 8 dereferenceable(16) %5, double noundef %6, double noundef %7) unnamed_addr #0 align 2 personality ptr @__gxx_personality_v0 {
  %9 = load atomic i64, ptr @_ZN32pxrInternal_v0_24__pxrReserved__11TfSingletonINS_14TsTypeRegistryEE9_instanceE seq_cst, align 8
  %.0.i.i.i = inttoptr i64 %9 to ptr
  %.not.i.i = icmp eq i64 %9, 0
  br i1 %.not.i.i, label %10, label %_ZN32pxrInternal_v0_24__pxrReserved__14TsTypeRegistry11GetInstanceEv.exit

10:                                               ; preds = %8
  %11 = tail call noundef ptr @_ZN32pxrInternal_v0_24__pxrReserved__11TfSingletonINS_14TsTypeRegistryEE15_CreateInstanceERSt6atomicIPS1_E(ptr noundef nonnull align 8 dereferenceable(8) @_ZN32pxrInternal_v0_24__pxrReserved__11TfSingletonINS_14TsTypeRegistryEE9_instanceE)
  br label %_ZN32pxrInternal_v0_24__pxrReserved__14TsTypeRegistry11GetInstanceEv.exit

_ZN32pxrInternal_v0_24__pxrReserved__14TsTypeRegistry11GetInstanceEv.exit: ; preds = %8, %10
  %.0.i.i = phi ptr [ %.0.i.i.i, %8 ], [ %11, %10 ]
  tail call void @_ZN32pxrInternal_v0_24__pxrReserved__14TsTypeRegistry20InitializeDataHolderEPNS_24Ts_PolymorphicDataHolderERKNS_7VtValueE(ptr noundef nonnull align 8 dereferenceable(64) %.0.i.i, ptr noundef nonnull %0, ptr noundef nonnull align 8 dereferenceable(16) %2)
  tail call void @_ZN32pxrInternal_v0_24__pxrReserved__10TsKeyFrame11_InitializeERKdNS_10TsKnotTypeERKNS_7VtValueES6_dd(ptr noundef nonnull align 8 dereferenceable(72) %0, ptr noundef nonnull align 8 dereferenceable(8) %1, i32 noundef %3, ptr noundef nonnull align 8 dereferenceable(16) %4, ptr noundef nonnull align 8 dereferenceable(16) %5, double noundef %6, double noundef %7)
  ret void
}